target datalayout = "e-m:e-p270:32:32-p271:32:32-p272:64:64-i64:64-i128:128-f80:128-n8:16:32:64-S128"
target triple = "x86_64-pc-linux-gnu"

%"class.llvm::LLT" = type { i64 }
%"class.llvm::ElementCount" = type { %"class.llvm::details::FixedOrScalableQuantity.base.611", [3 x i8] }
%"class.llvm::details::FixedOrScalableQuantity.base.611" = type <{ i32, i8 }>
%"class.llvm::details::FixedOrScalableQuantity.610" = type <{ i32, i8, [3 x i8] }>

@.str.267 = private unnamed_addr constant [47 x i8] c"operand types must be all-vector or all-scalar\00", align 1
@.str.268 = private unnamed_addr constant [54 x i8] c"operand types must preserve number of vector elements\00", align 1
@_ZN4llvm3LLT30PointerVectorScalableFieldInfoE = linkonce_odr constant [2 x i32] [i32 1, i32 56], comdat, align 4
@_ZN4llvm3LLT23VectorScalableFieldInfoE = linkonce_odr constant [2 x i32] [i32 1, i32 48], comdat, align 4
@_ZN4llvm3LLT23VectorElementsFieldInfoE = linkonce_odr constant [2 x i32] [i32 16, i32 0], comdat, align 4
@_ZN4llvm3LLT30PointerVectorElementsFieldInfoE = linkonce_odr constant [2 x i32] [i32 16, i32 0], comdat, align 4

; Function Attrs: mustprogress nounwind uwtable
define linkonce_odr hidden void @_ZN4llvm7details23FixedOrScalableQuantityINS_12ElementCountEjEC2Ejb(ptr noundef nonnull align 4 dereferenceable(5) %0, i32 noundef %1, i1 noundef zeroext %2) unnamed_addr #0 comdat align 2 {
  %4 = alloca ptr, align 8
  %5 = alloca i32, align 4
  %6 = alloca i8, align 1
  store ptr %0, ptr %4, align 8
  store i32 %1, ptr %5, align 4
  %7 = zext i1 %2 to i8
  store i8 %7, ptr %6, align 1
  %8 = load ptr, ptr %4, align 8
  %9 = getelementptr inbounds nuw %"class.llvm::details::FixedOrScalableQuantity.610", ptr %8, i32 0, i32 0
  %10 = load i32, ptr %5, align 4
  store i32 %10, ptr %9, align 4
  %11 = getelementptr inbounds nuw %"class.llvm::details::FixedOrScalableQuantity.610", ptr %8, i32 0, i32 1
  %12 = load i8, ptr %6, align 1
  %13 = trunc i8 %12 to i1
  %14 = zext i1 %13 to i8
  store i8 %14, ptr %11, align 4
  ret void
}

; Function Attrs: mustprogress nounwind uwtable
define linkonce_odr hidden void @_ZN4llvm12ElementCountC2Ejb(ptr noundef nonnull align 4 dereferenceable(5) %0, i32 noundef %1, i1 noundef zeroext %2) unnamed_addr #0 comdat align 2 {
  %4 = alloca ptr, align 8
  %5 = alloca i32, align 4
  %6 = alloca i8, align 1
  store ptr %0, ptr %4, align 8
  store i32 %1, ptr %5, align 4
  %7 = zext i1 %2 to i8
  store i8 %7, ptr %6, align 1
  %8 = load ptr, ptr %4, align 8
  %9 = load i32, ptr %5, align 4
  %10 = load i8, ptr %6, align 1
  %11 = trunc i8 %10 to i1
  call void @_ZN4llvm7details23FixedOrScalableQuantityINS_12ElementCountEjEC2Ejb(ptr noundef nonnull align 4 dereferenceable(5) %8, i32 noundef %9, i1 noundef zeroext %11)
  ret void
}

; Function Attrs: mustprogress nounwind uwtable
define linkonce_odr hidden noundef i64 @_ZN4llvm3LLT7getMaskEPKi(ptr noundef %0) #0 comdat align 2 {
  %2 = alloca ptr, align 8
  %3 = alloca i32, align 4
  store ptr %0, ptr %2, align 8
  %4 = load ptr, ptr %2, align 8
  %5 = getelementptr inbounds i32, ptr %4, i64 0
  %6 = load i32, ptr %5, align 4
  store i32 %6, ptr %3, align 4
  %7 = load i32, ptr %3, align 4
  %8 = zext i32 %7 to i64
  %9 = shl i64 1, %8
  %10 = sub i64 %9, 1
  ret i64 %10
}

; Function Attrs: mustprogress nounwind uwtable
define linkonce_odr hidden i64 @_ZN4llvm12ElementCount3getEjb(i32 noundef %0, i1 noundef zeroext %1) #0 comdat align 2 {
  %3 = alloca %"class.llvm::ElementCount", align 4
  %4 = alloca i32, align 4
  %5 = alloca i8, align 1
  store i32 %0, ptr %4, align 4
  %6 = zext i1 %1 to i8
  store i8 %6, ptr %5, align 1
  %7 = load i32, ptr %4, align 4
  %8 = load i8, ptr %5, align 1
  %9 = trunc i8 %8 to i1
  call void @_ZN4llvm12ElementCountC2Ejb(ptr noundef nonnull align 4 dereferenceable(5) %3, i32 noundef %7, i1 noundef zeroext %9)
  %10 = load i64, ptr %3, align 4
  ret i64 %10
}

; Function Attrs: mustprogress nounwind uwtable
define linkonce_odr hidden noundef zeroext i1 @_ZNK4llvm3LLT10isScalableEv(ptr noundef nonnull align 8 dereferenceable(8) %0) #0 comdat align 2 {
  %2 = alloca ptr, align 8
  store ptr %0, ptr %2, align 8
  %3 = load ptr, ptr %2, align 8
  %4 = load i64, ptr %3, align 8
  %5 = lshr i64 %4, 1
  %6 = and i64 %5, 1
  %7 = icmp ne i64 %6, 0
  br i1 %7, label %8, label %10

8:                                                ; preds = %1
  %9 = call noundef i64 @_ZNK4llvm3LLT13getFieldValueEPKi(ptr noundef nonnull align 8 dereferenceable(8) %3, ptr noundef @_ZN4llvm3LLT30PointerVectorScalableFieldInfoE)
  br label %12

10:                                               ; preds = %1
  %11 = call noundef i64 @_ZNK4llvm3LLT13getFieldValueEPKi(ptr noundef nonnull align 8 dereferenceable(8) %3, ptr noundef @_ZN4llvm3LLT23VectorScalableFieldInfoE)
  br label %12

12:                                               ; preds = %10, %8
  %13 = phi i64 [ %9, %8 ], [ %11, %10 ]
  %14 = icmp ne i64 %13, 0
  ret i1 %14
}

; Function Attrs: mustprogress nounwind uwtable
define linkonce_odr hidden noundef i64 @_ZNK4llvm3LLT13getFieldValueEPKi(ptr noundef nonnull align 8 dereferenceable(8) %0, ptr noundef %1) #0 comdat align 2 {
  %3 = alloca ptr, align 8
  %4 = alloca ptr, align 8
  store ptr %0, ptr %3, align 8
  store ptr %1, ptr %4, align 8
  %5 = load ptr, ptr %3, align 8
  %6 = load ptr, ptr %4, align 8
  %7 = call noundef i64 @_ZN4llvm3LLT7getMaskEPKi(ptr noundef %6)
  %8 = load i64, ptr %5, align 8
  %9 = lshr i64 %8, 3
  %10 = load ptr, ptr %4, align 8
  %11 = getelementptr inbounds i32, ptr %10, i64 1
  %12 = load i32, ptr %11, align 4
  %13 = zext i32 %12 to i64
  %14 = lshr i64 %9, %13
  %15 = and i64 %7, %14
  ret i64 %15
}

; Function Attrs: mustprogress nounwind uwtable
define linkonce_odr hidden noundef zeroext i1 @_ZNK4llvm3LLT7isValidEv(ptr noundef nonnull align 8 dereferenceable(8) %0) #0 comdat align 2 {
  %2 = alloca ptr, align 8
  store ptr %0, ptr %2, align 8
  %3 = load ptr, ptr %2, align 8
  %4 = load i64, ptr %3, align 8
  %5 = and i64 %4, 1
  %6 = icmp ne i64 %5, 0
  br i1 %6, label %11, label %7

7:                                                ; preds = %1
  %8 = load i64, ptr %3, align 8
  %9 = lshr i64 %8, 3
  %10 = icmp ne i64 %9, 0
  br label %11

11:                                               ; preds = %7, %1
  %12 = phi i1 [ true, %1 ], [ %10, %7 ]
  ret i1 %12
}

; Function Attrs: mustprogress nounwind uwtable
define linkonce_odr hidden noundef zeroext i1 @_ZNK4llvm7details23FixedOrScalableQuantityINS_12ElementCountEjEneERKS3_(ptr noundef nonnull align 4 dereferenceable(5) %0, ptr noundef nonnull align 4 dereferenceable(5) %1) #0 comdat align 2 {
  %3 = alloca ptr, align 8
  %4 = alloca ptr, align 8
  store ptr %0, ptr %3, align 8
  store ptr %1, ptr %4, align 8
  %5 = load ptr, ptr %3, align 8
  %6 = getelementptr inbounds nuw %"class.llvm::details::FixedOrScalableQuantity.610", ptr %5, i32 0, i32 0
  %7 = load i32, ptr %6, align 4
  %8 = load ptr, ptr %4, align 8
  %9 = getelementptr inbounds nuw %"class.llvm::details::FixedOrScalableQuantity.610", ptr %8, i32 0, i32 0
  %10 = load i32, ptr %9, align 4
  %11 = icmp ne i32 %7, %10
  br i1 %11, label %23, label %12

12:                                               ; preds = %2
  %13 = getelementptr inbounds nuw %"class.llvm::details::FixedOrScalableQuantity.610", ptr %5, i32 0, i32 1
  %14 = load i8, ptr %13, align 4
  %15 = trunc i8 %14 to i1
  %16 = zext i1 %15 to i32
  %17 = load ptr, ptr %4, align 8
  %18 = getelementptr inbounds nuw %"class.llvm::details::FixedOrScalableQuantity.610", ptr %17, i32 0, i32 1
  %19 = load i8, ptr %18, align 4
  %20 = trunc i8 %19 to i1
  %21 = zext i1 %20 to i32
  %22 = icmp ne i32 %16, %21
  br label %23

23:                                               ; preds = %12, %2
  %24 = phi i1 [ true, %2 ], [ %22, %12 ]
  ret i1 %24
}

; Function Attrs: mustprogress nounwind uwtable
define linkonce_odr hidden i64 @_ZNK4llvm3LLT15getElementCountEv(ptr noundef nonnull align 8 dereferenceable(8) %0) #0 comdat align 2 {
  %2 = alloca %"class.llvm::ElementCount", align 4
  %3 = alloca ptr, align 8
  store ptr %0, ptr %3, align 8
  %4 = load ptr, ptr %3, align 8
  %5 = load i64, ptr %4, align 8
  %6 = lshr i64 %5, 1
  %7 = and i64 %6, 1
  %8 = icmp ne i64 %7, 0
  br i1 %8, label %9, label %11

9:                                                ; preds = %1
  %10 = call noundef i64 @_ZNK4llvm3LLT13getFieldValueEPKi(ptr noundef nonnull align 8 dereferenceable(8) %4, ptr noundef @_ZN4llvm3LLT30PointerVectorElementsFieldInfoE)
  br label %13

11:                                               ; preds = %1
  %12 = call noundef i64 @_ZNK4llvm3LLT13getFieldValueEPKi(ptr noundef nonnull align 8 dereferenceable(8) %4, ptr noundef @_ZN4llvm3LLT23VectorElementsFieldInfoE)
  br label %13

13:                                               ; preds = %11, %9
  %14 = phi i64 [ %10, %9 ], [ %12, %11 ]
  %15 = trunc i64 %14 to i32
  %16 = call noundef zeroext i1 @_ZNK4llvm3LLT10isScalableEv(ptr noundef nonnull align 8 dereferenceable(8) %4)
  %17 = call i64 @_ZN4llvm12ElementCount3getEjb(i32 noundef %15, i1 noundef zeroext %16)
  %18 = trunc i64 %17 to i40
  store i40 %18, ptr %2, align 4
  %19 = load i64, ptr %2, align 4
  ret i64 %19
}

; Function Attrs: mustprogress nounwind uwtable
define linkonce_odr hidden noundef zeroext i1 @_ZNK4llvm3LLT8isVectorEv(ptr noundef nonnull align 8 dereferenceable(8) %0) #0 comdat align 2 {
  %2 = alloca ptr, align 8
  store ptr %0, ptr %2, align 8
  %3 = load ptr, ptr %2, align 8
  %4 = call noundef zeroext i1 @_ZNK4llvm3LLT7isValidEv(ptr noundef nonnull align 8 dereferenceable(8) %3)
  br i1 %4, label %5, label %10

5:                                                ; preds = %1
  %6 = load i64, ptr %3, align 8
  %7 = lshr i64 %6, 2
  %8 = and i64 %7, 1
  %9 = icmp ne i64 %8, 0
  br label %10

10:                                               ; preds = %5, %1
  %11 = phi i1 [ false, %1 ], [ %9, %5 ]
  ret i1 %11
}

; Function Attrs: mustprogress nounwind uwtable
define internal noundef zeroext i1 @_ZN12_GLOBAL__N_115MachineVerifier24verifyVectorElementMatchEN4llvm3LLTES2_PKNS1_12MachineInstrE(ptr noundef nonnull align 8 dereferenceable(1840) %0, i64 %1, i64 %2, ptr noundef %3) #0 align 2 {
  %5 = alloca i1, align 1
  %6 = alloca %"class.llvm::LLT", align 8
  %7 = alloca %"class.llvm::LLT", align 8
  %8 = alloca ptr, align 8
  %9 = alloca ptr, align 8
  %10 = alloca %"class.llvm::ElementCount", align 4
  %11 = alloca %"class.llvm::ElementCount", align 4
  %12 = getelementptr inbounds nuw %"class.llvm::LLT", ptr %6, i32 0, i32 0
  store i64 %1, ptr %12, align 8
  %13 = getelementptr inbounds nuw %"class.llvm::LLT", ptr %7, i32 0, i32 0
  store i64 %2, ptr %13, align 8
  store ptr %0, ptr %8, align 8
  store ptr %3, ptr %9, align 8
  %14 = load ptr, ptr %8, align 8
  %15 = call noundef zeroext i1 @_ZNK4llvm3LLT8isVectorEv(ptr noundef nonnull align 8 dereferenceable(8) %6)
  %16 = zext i1 %15 to i32
  %17 = call noundef zeroext i1 @_ZNK4llvm3LLT8isVectorEv(ptr noundef nonnull align 8 dereferenceable(8) %7)
  %18 = zext i1 %17 to i32
  %19 = icmp ne i32 %16, %18
  br i1 %19, label %20, label %22

20:                                               ; preds = %4
  %21 = load ptr, ptr %9, align 8
  call void @_ZN12_GLOBAL__N_115MachineVerifier6reportEPKcPKN4llvm12MachineInstrE(ptr noundef nonnull align 8 dereferenceable(1840) %14, ptr noundef @.str.267, ptr noundef %21)
  store i1 false, ptr %5, align 1
  br label %35

22:                                               ; preds = %4
  %23 = call noundef zeroext i1 @_ZNK4llvm3LLT8isVectorEv(ptr noundef nonnull align 8 dereferenceable(8) %6)
  br i1 %23, label %24, label %30

24:                                               ; preds = %22
  %25 = call i64 @_ZNK4llvm3LLT15getElementCountEv(ptr noundef nonnull align 8 dereferenceable(8) %6)
  %26 = trunc i64 %25 to i40
  store i40 %26, ptr %10, align 4
  %27 = call i64 @_ZNK4llvm3LLT15getElementCountEv(ptr noundef nonnull align 8 dereferenceable(8) %7)
  %28 = trunc i64 %27 to i40
  store i40 %28, ptr %11, align 4
  %29 = call noundef zeroext i1 @_ZNK4llvm7details23FixedOrScalableQuantityINS_12ElementCountEjEneERKS3_(ptr noundef nonnull align 4 dereferenceable(5) %10, ptr noundef nonnull align 4 dereferenceable(5) %11)
  br label %30

30:                                               ; preds = %24, %22
  %31 = phi i1 [ false, %22 ], [ %29, %24 ]
  br i1 %31, label %32, label %34

32:                                               ; preds = %30
  %33 = load ptr, ptr %9, align 8
  call void @_ZN12_GLOBAL__N_115MachineVerifier6reportEPKcPKN4llvm12MachineInstrE(ptr noundef nonnull align 8 dereferenceable(1840) %14, ptr noundef @.str.268, ptr noundef %33)
  store i1 false, ptr %5, align 1
  br label %35

34:                                               ; preds = %30
  store i1 true, ptr %5, align 1
  br label %35

35:                                               ; preds = %34, %32, %20
  %36 = load i1, ptr %5, align 1
  ret i1 %36
}