; Function Attrs: mustprogress nounwind uwtable
define internal fastcc noundef zeroext i1 @_ZN12_GLOBAL__N_115MachineVerifier24verifyVectorElementMatchEN4llvm3LLTES2_PKNS1_12MachineInstrE(ptr noundef nonnull align 8 captures(none) dereferenceable(1840) %0, i64 %1, i64 %2, ptr noundef %3) unnamed_addr #0 align 2 {
  %5 = and i64 %1, -7
  %spec.select.i.i = icmp ne i64 %5, 0
  %6 = and i64 %1, 4
  %7 = icmp ne i64 %6, 0
  %8 = and i1 %spec.select.i.i, %7
  %9 = and i64 %2, -7
  %spec.select.i.i4 = icmp ne i64 %9, 0
  %10 = and i64 %2, 4
  %11 = icmp ne i64 %10, 0
  %12 = and i1 %spec.select.i.i4, %11
  %13 = xor i1 %8, %12
  br i1 %13, label %.critedge.sink.split, label %14

14:                                               ; preds = %4
  br i1 %8, label %15, label %.critedge

15:                                               ; preds = %14
  %16 = and i64 %1, 2
  %.not.i = icmp eq i64 %16, 0
  %17 = select i1 %.not.i, i64 2251799813685248, i64 576460752303423488
  %18 = and i64 %17, %1
  %.not1.i = icmp ne i64 %18, 0
  %19 = and i64 %2, 2
  %.not.i6 = icmp eq i64 %19, 0
  %20 = select i1 %.not.i6, i64 2251799813685248, i64 576460752303423488
  %21 = and i64 %20, %2
  %.not1.i8 = icmp ne i64 %21, 0
  %22 = xor i64 %2, %1
  %23 = and i64 %22, 524280
  %.not.i11 = icmp ne i64 %23, 0
  %24 = xor i1 %.not1.i, %.not1.i8
  %or.cond = or i1 %.not.i11, %24
  br i1 %or.cond, label %.critedge.sink.split, label %.critedge

.critedge.sink.split:                             ; preds = %15, %4
  %.str.268.sink = phi ptr [ @.str.267, %4 ], [ @.str.268, %15 ]
  tail call fastcc void @_ZN12_GLOBAL__N_115MachineVerifier6reportEPKcPKN4llvm12MachineInstrE(ptr noundef nonnull align 8 dereferenceable(1840) %0, ptr noundef nonnull %.str.268.sink, ptr noundef %3)
  br label %.critedge

.critedge:                                        ; preds = %.critedge.sink.split, %15, %14
  %.0 = phi i1 [ true, %14 ], [ true, %15 ], [ false, %.critedge.sink.split ]
  ret i1 %.0
}